	.section	__TEXT,__text,regular,pure_instructions
	.macosx_version_min 10, 12
	.globl	_main
_main:                                  ## @main
Lfunc_begin0:
	.file	1 "sumints.c"
	.loc	1 5 0                   ## sumints.c:5:0
	.cfi_startproc
## BB#0:
	pushq	%rbp
Ltmp0:
	.cfi_def_cfa_offset 16
Ltmp1:
	.cfi_offset %rbp, -16
	movq	%rsp, %rbp
Ltmp2:
	.cfi_def_cfa_register %rbp
	pushq	%r15
	pushq	%r14
	pushq	%rbx
	pushq	%rax
Ltmp3:
	.cfi_offset %rbx, -40
Ltmp4:
	.cfi_offset %r14, -32
Ltmp5:
	.cfi_offset %r15, -24
	##DEBUG_VALUE: main:argc <- %EDI
	##DEBUG_VALUE: main:argv <- %RSI
	movq	%rsi, %r14
Ltmp6:
	##DEBUG_VALUE: main:argv <- %R14
	movl	%edi, %r15d
Ltmp7:
	##DEBUG_VALUE: main:numIter <- 1000
	##DEBUG_VALUE: main:max <- 1000
	##DEBUG_VALUE: main:argc <- %R15D
	movl	$1000, %ecx             ## imm = 0x3E8
	.loc	1 9 7 prologue_end      ## sumints.c:9:7
Ltmp8:
	cmpl	$2, %r15d
	movl	$1000, %ebx             ## imm = 0x3E8
	jl	LBB0_4
Ltmp9:
## BB#1:
	##DEBUG_VALUE: main:argc <- %R15D
	##DEBUG_VALUE: main:argv <- %R14
	.loc	1 10 16                 ## sumints.c:10:16
	movq	8(%r14), %rdi
	.loc	1 10 11 is_stmt 0       ## sumints.c:10:11
	callq	_atol
	movq	%rax, %rbx
Ltmp10:
	##DEBUG_VALUE: main:numIter <- %RBX
	movl	$1000, %ecx             ## imm = 0x3E8
Ltmp11:
	.loc	1 12 7 is_stmt 1        ## sumints.c:12:7
	cmpl	$3, %r15d
	jl	LBB0_3
Ltmp12:
## BB#2:
	##DEBUG_VALUE: main:numIter <- %RBX
	##DEBUG_VALUE: main:argc <- %R15D
	##DEBUG_VALUE: main:argv <- %R14
	.loc	1 13 12                 ## sumints.c:13:12
	movq	16(%r14), %rdi
	.loc	1 13 7 is_stmt 0        ## sumints.c:13:7
	callq	_atol
	movq	%rax, %rcx
Ltmp13:
	##DEBUG_VALUE: main:max <- %RCX
LBB0_3:
	##DEBUG_VALUE: main:numIter <- %RBX
	##DEBUG_VALUE: main:argc <- %R15D
	##DEBUG_VALUE: main:argv <- %R14
	##DEBUG_VALUE: main:totalSum <- 0
	##DEBUG_VALUE: main:k <- 0
	xorl	%edx, %edx
	.loc	1 16 2 is_stmt 1        ## sumints.c:16:2
Ltmp14:
	testq	%rbx, %rbx
                                        ## implicit-def: %RSI
	jle	LBB0_6
Ltmp15:
LBB0_4:
	##DEBUG_VALUE: main:argc <- %R15D
	##DEBUG_VALUE: main:argv <- %R14
	leaq	-1(%rcx), %rax
	leaq	-2(%rcx), %rdx
	mulq	%rdx
	shldq	$63, %rax, %rdx
	leaq	-1(%rdx,%rcx,2), %rax
	xorl	%edi, %edi
	xorl	%edx, %edx
Ltmp16:
LBB0_5:                                 ## =>This Inner Loop Header: Depth=1
	testq	%rcx, %rcx
	.loc	1 19 2                  ## sumints.c:19:2
Ltmp17:
	movq	%rax, %rsi
	cmovleq	%rdi, %rsi
Ltmp18:
	.loc	1 22 11                 ## sumints.c:22:11
	addq	%rsi, %rdx
Ltmp19:
	##DEBUG_VALUE: main:totalSum <- %RDX
	.loc	1 16 2                  ## sumints.c:16:2
	decq	%rbx
	jne	LBB0_5
Ltmp20:
LBB0_6:
	.loc	1 37 2                  ## sumints.c:37:2
	leaq	L_.str(%rip), %rdi
	xorl	%eax, %eax
	callq	_printf
	.loc	1 38 2                  ## sumints.c:38:2
	xorl	%eax, %eax
	addq	$8, %rsp
	popq	%rbx
	popq	%r14
	popq	%r15
	popq	%rbp
	retq
Ltmp21:
Lfunc_end0:
	.cfi_endproc

	.section	__TEXT,__cstring,cstring_literals
L_.str:                                 ## @.str
	.asciz	"%ld (total: %ld)\n"
